; Function Attrs: alwaysinline norecurse nounwind uwtable
define internal void @_ZNK4ncnn7Softmax15forward_inplaceERNS_3MatERKNS_6OptionE.omp_outlined(ptr noalias noundef readonly captures(none) %0, ptr noalias readnone captures(none) %1, ptr noundef nonnull readonly align 4 captures(none) dereferenceable(4) %2, ptr noundef nonnull readonly align 8 captures(none) dereferenceable(72) %3, ptr noundef nonnull readonly align 4 captures(none) dereferenceable(4) %4, ptr noundef nonnull readonly align 8 captures(none) dereferenceable(72) %5) #6 personality ptr @__gxx_personality_v0 {
  %7 = alloca i32, align 4
  %8 = alloca i32, align 4
  %9 = alloca i32, align 4
  %10 = alloca i32, align 4
  %11 = load i32, ptr %2, align 4, !tbaa !60
  %12 = icmp sgt i32 %11, 0
  br i1 %12, label %13, label %36

13:                                               ; preds = %6
  %14 = add nsw i32 %11, -1
  call void @llvm.lifetime.start.p0(i64 4, ptr nonnull %7) #7
  store i32 0, ptr %7, align 4, !tbaa !60
  call void @llvm.lifetime.start.p0(i64 4, ptr nonnull %8) #7
  store i32 %14, ptr %8, align 4, !tbaa !60
  call void @llvm.lifetime.start.p0(i64 4, ptr nonnull %9) #7
  store i32 1, ptr %9, align 4, !tbaa !60
  call void @llvm.lifetime.start.p0(i64 4, ptr nonnull %10) #7
  store i32 0, ptr %10, align 4, !tbaa !60
  %15 = load i32, ptr %0, align 4, !tbaa !60
  call void @__kmpc_for_static_init_4(ptr nonnull @1, i32 %15, i32 34, ptr nonnull %10, ptr nonnull %7, ptr nonnull %8, ptr nonnull %9, i32 1, i32 1)
  %16 = load i32, ptr %8, align 4, !tbaa !60
  %17 = call i32 @llvm.smin.i32(i32 %16, i32 %14)
  store i32 %17, ptr %8, align 4, !tbaa !60
  %18 = load i32, ptr %7, align 4, !tbaa !60
  %.not29 = icmp sgt i32 %18, %17
  br i1 %.not29, label %._crit_edge31, label %.noexc.lr.ph

.noexc.lr.ph:                                     ; preds = %13
  %19 = load ptr, ptr %3, align 8, !tbaa !33, !noalias !74
  %20 = getelementptr inbounds nuw i8, ptr %3, i64 64
  %21 = load i64, ptr %20, align 8, !tbaa !41, !noalias !74
  %22 = getelementptr inbounds nuw i8, ptr %3, i64 16
  %23 = load i64, ptr %22, align 8, !tbaa !31, !noalias !74
  %factor.op.mul = mul i64 %21, %23
  %24 = load i32, ptr %4, align 4, !tbaa !60
  %25 = icmp sgt i32 %24, 0
  %26 = load ptr, ptr %5, align 8
  br i1 %25, label %.noexc.us.preheader, label %._crit_edge31

.noexc.us.preheader:                              ; preds = %.noexc.lr.ph
  %27 = sext i32 %18 to i64
  %28 = add nsw i32 %17, 1
  %wide.trip.count = zext nneg i32 %24 to i64
  br label %.noexc.us

.noexc.us:                                        ; preds = %.noexc.us.preheader, %._crit_edge.us
  %indvars.iv34 = phi i64 [ %27, %.noexc.us.preheader ], [ %indvars.iv.next35, %._crit_edge.us ]
  %.reass.us = mul i64 %factor.op.mul, %indvars.iv34
  %29 = getelementptr inbounds nuw i8, ptr %19, i64 %.reass.us
  br label %30

30:                                               ; preds = %.noexc.us, %30
  %indvars.iv = phi i64 [ 0, %.noexc.us ], [ %indvars.iv.next, %30 ]
  %31 = getelementptr inbounds nuw float, ptr %26, i64 %indvars.iv
  %32 = load float, ptr %31, align 4, !tbaa !34
  %33 = getelementptr inbounds nuw float, ptr %29, i64 %indvars.iv
  %34 = load float, ptr %33, align 4, !tbaa !34
  %35 = fdiv fast float %34, %32
  store float %35, ptr %33, align 4, !tbaa !34
  %indvars.iv.next = add nuw nsw i64 %indvars.iv, 1
  %exitcond.not = icmp eq i64 %indvars.iv.next, %wide.trip.count
  br i1 %exitcond.not, label %._crit_edge.us, label %30, !llvm.loop !77

._crit_edge.us:                                   ; preds = %30
  %indvars.iv.next35 = add nsw i64 %indvars.iv34, 1
  %lftr.wideiv = trunc i64 %indvars.iv.next35 to i32
  %exitcond37.not = icmp eq i32 %28, %lftr.wideiv
  br i1 %exitcond37.not, label %._crit_edge31, label %.noexc.us

._crit_edge31:                                    ; preds = %._crit_edge.us, %.noexc.lr.ph, %13
  call void @__kmpc_for_static_fini(ptr nonnull @1, i32 %15)
  call void @llvm.lifetime.end.p0(i64 4, ptr nonnull %10) #7
  call void @llvm.lifetime.end.p0(i64 4, ptr nonnull %9) #7
  call void @llvm.lifetime.end.p0(i64 4, ptr nonnull %8) #7
  call void @llvm.lifetime.end.p0(i64 4, ptr nonnull %7) #7
  br label %36

36:                                               ; preds = %._crit_edge31, %6
  ret void
}